target datalayout = "e-m:e-p270:32:32-p271:32:32-p272:64:64-i64:64-i128:128-f80:128-n8:16:32:64-S128"
target triple = "x86_64-pc-linux-gnu"

%class.Ui_LBMLBTRUTransportDialog = type { ptr, ptr, ptr, ptr, ptr, ptr, ptr, ptr, ptr, ptr, ptr, ptr, ptr, ptr, ptr, ptr, ptr, ptr, ptr, ptr, ptr, ptr, ptr, ptr, ptr, ptr, ptr, ptr, ptr, ptr, ptr, ptr, ptr, ptr, ptr, ptr, ptr, ptr, ptr, ptr, ptr, ptr, ptr, ptr, ptr, ptr, ptr, ptr, ptr, ptr, ptr, ptr, ptr, ptr, ptr, ptr, ptr, ptr, ptr, ptr, ptr, ptr, ptr, ptr, ptr, ptr, ptr, ptr, ptr, ptr, ptr, ptr, ptr, ptr, ptr, ptr, ptr, ptr, ptr, ptr, ptr, ptr, ptr, ptr, ptr, ptr, ptr, ptr, ptr, ptr, ptr, ptr }
%class.LBMLBTRUTransportDialog = type { %class.QDialog, ptr, ptr, ptr, ptr, ptr, ptr, ptr, ptr, ptr }
%class.QDialog = type { %class.QWidget }
%class.QWidget = type { %class.QObject, %class.QPaintDevice.base, ptr }
%class.QObject = type { ptr, %class.QScopedPointer }
%class.QScopedPointer = type { ptr }
%class.QPaintDevice.base = type <{ ptr, i16 }>

@_ZN27LBMLBTRUTransportDialogInfoD1Ev = unnamed_addr alias void (ptr), ptr @_ZN27LBMLBTRUTransportDialogInfoD2Ev

; Function Attrs: mustprogress null_pointer_is_valid sspstrong uwtable
define void @_ZN23LBMLBTRUTransportDialog14resetReceiversEv(ptr noundef align 8 dereferenceable_or_null(112) %0) #0 align 2 {
  %2 = alloca ptr, align 8
  store ptr %0, ptr %2, align 8
  %3 = load ptr, ptr %2, align 8
  br label %4

4:                                                ; preds = %11, %1
  %5 = getelementptr inbounds nuw %class.LBMLBTRUTransportDialog, ptr %3, i32 0, i32 1
  %6 = load ptr, ptr %5, align 8
  %7 = getelementptr inbounds nuw %class.Ui_LBMLBTRUTransportDialog, ptr %6, i32 0, i32 71
  %8 = load ptr, ptr %7, align 8
  %9 = call noundef ptr @_ZN11QTreeWidget16takeTopLevelItemEi(ptr noundef align 8 dereferenceable_or_null(40) %8, i32 noundef 0)
  %10 = icmp ne ptr %9, null
  br i1 %10, label %11, label %12

11:                                               ; preds = %4
  br label %4, !llvm.loop !34

12:                                               ; preds = %4
  ret void
}

; Function Attrs: mustprogress null_pointer_is_valid sspstrong uwtable
define void @_ZN23LBMLBTRUTransportDialog12resetSourcesEv(ptr noundef align 8 dereferenceable_or_null(112) %0) #0 align 2 {
  %2 = alloca ptr, align 8
  store ptr %0, ptr %2, align 8
  %3 = load ptr, ptr %2, align 8
  br label %4

4:                                                ; preds = %11, %1
  %5 = getelementptr inbounds nuw %class.LBMLBTRUTransportDialog, ptr %3, i32 0, i32 1
  %6 = load ptr, ptr %5, align 8
  %7 = getelementptr inbounds nuw %class.Ui_LBMLBTRUTransportDialog, ptr %6, i32 0, i32 49
  %8 = load ptr, ptr %7, align 8
  %9 = call noundef ptr @_ZN11QTreeWidget16takeTopLevelItemEi(ptr noundef align 8 dereferenceable_or_null(40) %8, i32 noundef 0)
  %10 = icmp ne ptr %9, null
  br i1 %10, label %11, label %12

11:                                               ; preds = %4
  br label %4, !llvm.loop !31

12:                                               ; preds = %4
  ret void
}

; Function Attrs: mustprogress nounwind null_pointer_is_valid sspstrong uwtable
define void @_ZN23LBMLBTRUTransportDialogD2Ev(ptr noundef align 8 dereferenceable_or_null(112) %0) unnamed_addr #5 align 2 personality ptr @__gxx_personality_v0 {
  %2 = alloca ptr, align 8
  store ptr %0, ptr %2, align 8
  %3 = load ptr, ptr %2, align 8
  store ptr getelementptr inbounds inrange(-16, 456) ({ [59 x ptr], [10 x ptr] }, ptr @_ZTV23LBMLBTRUTransportDialog, i32 0, i32 0, i32 2), ptr %3, align 8
  %4 = getelementptr inbounds i8, ptr %3, i64 16
  store ptr getelementptr inbounds inrange(-16, 64) ({ [59 x ptr], [10 x ptr] }, ptr @_ZTV23LBMLBTRUTransportDialog, i32 0, i32 1, i32 2), ptr %4, align 8
  invoke void @_ZN23LBMLBTRUTransportDialog18resetSourcesDetailEv(ptr noundef align 8 dereferenceable_or_null(112) %3)
          to label %5 unwind label %36

5:                                                ; preds = %1
  invoke void @_ZN23LBMLBTRUTransportDialog12resetSourcesEv(ptr noundef align 8 dereferenceable_or_null(112) %3)
          to label %6 unwind label %36

6:                                                ; preds = %5
  invoke void @_ZN23LBMLBTRUTransportDialog20resetReceiversDetailEv(ptr noundef align 8 dereferenceable_or_null(112) %3)
          to label %7 unwind label %36

7:                                                ; preds = %6
  invoke void @_ZN23LBMLBTRUTransportDialog14resetReceiversEv(ptr noundef align 8 dereferenceable_or_null(112) %3)
          to label %8 unwind label %36

8:                                                ; preds = %7
  %9 = getelementptr inbounds nuw %class.LBMLBTRUTransportDialog, ptr %3, i32 0, i32 2
  %10 = load ptr, ptr %9, align 8
  %11 = icmp ne ptr %10, null
  br i1 %11, label %12, label %19

12:                                               ; preds = %8
  %13 = getelementptr inbounds nuw %class.LBMLBTRUTransportDialog, ptr %3, i32 0, i32 2
  %14 = load ptr, ptr %13, align 8
  %15 = icmp eq ptr %14, null
  br i1 %15, label %17, label %16

16:                                               ; preds = %12
  call void @_ZN27LBMLBTRUTransportDialogInfoD1Ev(ptr noundef align 8 dereferenceable_or_null(24) %14) #22
  call void @_ZdlPvm(ptr noundef %14, i64 noundef 24) #24
  br label %17

17:                                               ; preds = %16, %12
  %18 = getelementptr inbounds nuw %class.LBMLBTRUTransportDialog, ptr %3, i32 0, i32 2
  store ptr null, ptr %18, align 8
  br label %19

19:                                               ; preds = %17, %8
  %20 = getelementptr inbounds nuw %class.LBMLBTRUTransportDialog, ptr %3, i32 0, i32 6
  %21 = load ptr, ptr %20, align 8
  %22 = icmp eq ptr %21, null
  br i1 %22, label %27, label %23

23:                                               ; preds = %19
  %24 = load ptr, ptr %21, align 8
  %25 = getelementptr inbounds ptr, ptr %24, i64 4
  %26 = load ptr, ptr %25, align 8
  call void %26(ptr noundef align 8 dereferenceable_or_null(40) %21) #22
  br label %27

27:                                               ; preds = %23, %19
  %28 = getelementptr inbounds nuw %class.LBMLBTRUTransportDialog, ptr %3, i32 0, i32 6
  store ptr null, ptr %28, align 8
  %29 = getelementptr inbounds nuw %class.LBMLBTRUTransportDialog, ptr %3, i32 0, i32 1
  %30 = load ptr, ptr %29, align 8
  %31 = icmp eq ptr %30, null
  br i1 %31, label %33, label %32

32:                                               ; preds = %27
  call void @_ZdlPvm(ptr noundef %30, i64 noundef 736) #24
  br label %33

33:                                               ; preds = %32, %27
  %34 = getelementptr inbounds nuw %class.LBMLBTRUTransportDialog, ptr %3, i32 0, i32 1
  store ptr null, ptr %34, align 8
  %35 = getelementptr inbounds nuw %class.LBMLBTRUTransportDialog, ptr %3, i32 0, i32 3
  store ptr null, ptr %35, align 8
  call void @_ZN7QDialogD2Ev(ptr noundef align 8 dereferenceable_or_null(40) %3) #22
  ret void

36:                                               ; preds = %7, %6, %5, %1
  %37 = landingpad { ptr, i32 }
          catch ptr null
  %38 = extractvalue { ptr, i32 } %37, 0
  call void @__clang_call_terminate(ptr %38) #23
  unreachable
}