; Function Attrs: mustprogress nounwind null_pointer_is_valid sspstrong uwtable
define void @_ZN23LBMLBTRUTransportDialogD2Ev(ptr noundef align 8 dereferenceable_or_null(112) initializes((0, 8), (16, 24)) %0) unnamed_addr #5 align 2 personality ptr @__gxx_personality_v0 {
  store ptr getelementptr inbounds nuw inrange(-16, 456) (i8, ptr @_ZTV23LBMLBTRUTransportDialog, i64 16), ptr %0, align 8
  %2 = getelementptr inbounds nuw i8, ptr %0, i64 16
  store ptr getelementptr inbounds nuw inrange(-16, 64) (i8, ptr @_ZTV23LBMLBTRUTransportDialog, i64 488), ptr %2, align 8
  invoke void @_ZN23LBMLBTRUTransportDialog18resetSourcesDetailEv(ptr noundef align 8 dereferenceable_or_null(112) %0)
          to label %3 unwind label %.loopexit.split-lp.loopexit.split-lp

3:                                                ; preds = %1
  %4 = getelementptr inbounds nuw i8, ptr %0, i64 40
  br label %5

5:                                                ; preds = %.noexc, %3
  %6 = load ptr, ptr %4, align 8
  %7 = getelementptr inbounds nuw i8, ptr %6, i64 392
  %8 = load ptr, ptr %7, align 8
  %9 = invoke noundef ptr @_ZN11QTreeWidget16takeTopLevelItemEi(ptr noundef align 8 dereferenceable_or_null(40) %8, i32 noundef 0)
          to label %.noexc unwind label %.loopexit.split-lp.loopexit

.noexc:                                           ; preds = %5
  %.not.i = icmp eq ptr %9, null
  br i1 %.not.i, label %_ZN23LBMLBTRUTransportDialog12resetSourcesEv.exit, label %5, !llvm.loop !104

_ZN23LBMLBTRUTransportDialog12resetSourcesEv.exit: ; preds = %.noexc
  invoke void @_ZN23LBMLBTRUTransportDialog20resetReceiversDetailEv(ptr noundef align 8 dereferenceable_or_null(112) %0)
          to label %.preheader unwind label %.loopexit.split-lp.loopexit.split-lp

.preheader:                                       ; preds = %_ZN23LBMLBTRUTransportDialog12resetSourcesEv.exit, %.noexc4
  %10 = load ptr, ptr %4, align 8
  %11 = getelementptr inbounds nuw i8, ptr %10, i64 568
  %12 = load ptr, ptr %11, align 8
  %13 = invoke noundef ptr @_ZN11QTreeWidget16takeTopLevelItemEi(ptr noundef align 8 dereferenceable_or_null(40) %12, i32 noundef 0)
          to label %.noexc4 unwind label %.loopexit

.noexc4:                                          ; preds = %.preheader
  %.not.i3 = icmp eq ptr %13, null
  br i1 %.not.i3, label %_ZN23LBMLBTRUTransportDialog14resetReceiversEv.exit, label %.preheader, !llvm.loop !105

_ZN23LBMLBTRUTransportDialog14resetReceiversEv.exit: ; preds = %.noexc4
  %14 = getelementptr inbounds nuw i8, ptr %0, i64 48
  %15 = load ptr, ptr %14, align 8
  %.not = icmp eq ptr %15, null
  br i1 %.not, label %17, label %16

16:                                               ; preds = %_ZN23LBMLBTRUTransportDialog14resetReceiversEv.exit
  tail call void @_ZN27LBMLBTRUTransportDialogInfoD1Ev(ptr noundef nonnull align 8 dereferenceable_or_null(24) %15) #19
  tail call void @_ZdlPvm(ptr noundef nonnull %15, i64 noundef 24) #21
  store ptr null, ptr %14, align 8
  br label %17

17:                                               ; preds = %16, %_ZN23LBMLBTRUTransportDialog14resetReceiversEv.exit
  %18 = getelementptr inbounds nuw i8, ptr %0, i64 80
  %19 = load ptr, ptr %18, align 8
  %20 = icmp eq ptr %19, null
  br i1 %20, label %25, label %21

21:                                               ; preds = %17
  %22 = load ptr, ptr %19, align 8
  %23 = getelementptr inbounds nuw i8, ptr %22, i64 32
  %24 = load ptr, ptr %23, align 8
  tail call void %24(ptr noundef nonnull align 8 dereferenceable_or_null(40) %19) #19
  br label %25

25:                                               ; preds = %21, %17
  store ptr null, ptr %18, align 8
  %26 = load ptr, ptr %4, align 8
  %27 = icmp eq ptr %26, null
  br i1 %27, label %29, label %28

28:                                               ; preds = %25
  tail call void @_ZdlPvm(ptr noundef nonnull %26, i64 noundef 736) #21
  br label %29

29:                                               ; preds = %28, %25
  store ptr null, ptr %4, align 8
  %30 = getelementptr inbounds nuw i8, ptr %0, i64 56
  store ptr null, ptr %30, align 8
  tail call void @_ZN7QDialogD2Ev(ptr noundef align 8 dereferenceable_or_null(40) %0) #19
  ret void

.loopexit:                                        ; preds = %.preheader
  %lpad.loopexit = landingpad { ptr, i32 }
          catch ptr null
  br label %.loopexit.split-lp

.loopexit.split-lp.loopexit:                      ; preds = %5
  %lpad.loopexit5 = landingpad { ptr, i32 }
          catch ptr null
  br label %.loopexit.split-lp

.loopexit.split-lp.loopexit.split-lp:             ; preds = %_ZN23LBMLBTRUTransportDialog12resetSourcesEv.exit, %1
  %lpad.loopexit.split-lp6 = landingpad { ptr, i32 }
          catch ptr null
  br label %.loopexit.split-lp

.loopexit.split-lp:                               ; preds = %.loopexit.split-lp.loopexit, %.loopexit.split-lp.loopexit.split-lp, %.loopexit
  %lpad.phi = phi { ptr, i32 } [ %lpad.loopexit, %.loopexit ], [ %lpad.loopexit5, %.loopexit.split-lp.loopexit ], [ %lpad.loopexit.split-lp6, %.loopexit.split-lp.loopexit.split-lp ]
  %31 = extractvalue { ptr, i32 } %lpad.phi, 0
  tail call void @__clang_call_terminate(ptr %31) #20
  unreachable
}